
flag_generator:     file format elf32-littlearm


Disassembly of section .init:

00010ae4 <_init>:
   10ae4:	e92d4008 	push	{r3, lr}
   10ae8:	eb0000b7 	bl	10dcc <call_weak_fn>
   10aec:	e8bd8008 	pop	{r3, pc}

Disassembly of section .plt:

00010af0 <.plt>:
   10af0:	e52de004 	push	{lr}		@ (str lr, [sp, #-4]!)
   10af4:	e59fe004 	ldr	lr, [pc, #4]	@ 10b00 <.plt+0x10>
   10af8:	e08fe00e 	add	lr, pc, lr
   10afc:	e5bef008 	ldr	pc, [lr, #8]!
   10b00:	00002500 	andeq	r2, r0, r0, lsl #10

00010b04 <std::basic_ostream<char, std::char_traits<char> >::put(char)@plt>:
   10b04:	e28fc600 	add	ip, pc, #0, 12
   10b08:	e28cca02 	add	ip, ip, #8192	@ 0x2000
   10b0c:	e5bcf500 	ldr	pc, [ip, #1280]!	@ 0x500

00010b10 <operator new(unsigned int)@plt>:
   10b10:	e28fc600 	add	ip, pc, #0, 12
   10b14:	e28cca02 	add	ip, ip, #8192	@ 0x2000
   10b18:	e5bcf4f8 	ldr	pc, [ip, #1272]!	@ 0x4f8

00010b1c <__aeabi_atexit@plt>:
   10b1c:	e28fc600 	add	ip, pc, #0, 12
   10b20:	e28cca02 	add	ip, ip, #8192	@ 0x2000
   10b24:	e5bcf4f0 	ldr	pc, [ip, #1264]!	@ 0x4f0

00010b28 <std::basic_istream<char, std::char_traits<char> >& std::getline<char, std::char_traits<char>, std::allocator<char> >(std::basic_istream<char, std::char_traits<char> >&, std::__cxx11::basic_string<char, std::char_traits<char>, std::allocator<char> >&)@plt>:
   10b28:	e28fc600 	add	ip, pc, #0, 12
   10b2c:	e28cca02 	add	ip, ip, #8192	@ 0x2000
   10b30:	e5bcf4e8 	ldr	pc, [ip, #1256]!	@ 0x4e8

00010b34 <std::__cxx11::basic_string<char, std::char_traits<char>, std::allocator<char> >::_S_copy_chars(char*, char*, char*)@plt>:
   10b34:	e28fc600 	add	ip, pc, #0, 12
   10b38:	e28cca02 	add	ip, ip, #8192	@ 0x2000
   10b3c:	e5bcf4e0 	ldr	pc, [ip, #1248]!	@ 0x4e0

00010b40 <__cxa_begin_catch@plt>:
   10b40:	e28fc600 	add	ip, pc, #0, 12
   10b44:	e28cca02 	add	ip, ip, #8192	@ 0x2000
   10b48:	e5bcf4d8 	ldr	pc, [ip, #1240]!	@ 0x4d8

00010b4c <std::__throw_length_error(char const*)@plt>:
   10b4c:	e28fc600 	add	ip, pc, #0, 12
   10b50:	e28cca02 	add	ip, ip, #8192	@ 0x2000
   10b54:	e5bcf4d0 	ldr	pc, [ip, #1232]!	@ 0x4d0

00010b58 <memset@plt>:
   10b58:	e28fc600 	add	ip, pc, #0, 12
   10b5c:	e28cca02 	add	ip, ip, #8192	@ 0x2000
   10b60:	e5bcf4c8 	ldr	pc, [ip, #1224]!	@ 0x4c8

00010b64 <operator delete(void*, unsigned int)@plt>:
   10b64:	e28fc600 	add	ip, pc, #0, 12
   10b68:	e28cca02 	add	ip, ip, #8192	@ 0x2000
   10b6c:	e5bcf4c0 	ldr	pc, [ip, #1216]!	@ 0x4c0

00010b70 <__libc_start_main@plt>:
   10b70:	e28fc600 	add	ip, pc, #0, 12
   10b74:	e28cca02 	add	ip, ip, #8192	@ 0x2000
   10b78:	e5bcf4b8 	ldr	pc, [ip, #1208]!	@ 0x4b8

00010b7c <close@plt>:
   10b7c:	e28fc600 	add	ip, pc, #0, 12
   10b80:	e28cca02 	add	ip, ip, #8192	@ 0x2000
   10b84:	e5bcf4b0 	ldr	pc, [ip, #1200]!	@ 0x4b0

00010b88 <abort@plt>:
   10b88:	e28fc600 	add	ip, pc, #0, 12
   10b8c:	e28cca02 	add	ip, ip, #8192	@ 0x2000
   10b90:	e5bcf4a8 	ldr	pc, [ip, #1192]!	@ 0x4a8

00010b94 <std::basic_ostream<char, std::char_traits<char> >& std::operator<< <char, std::char_traits<char>, std::allocator<char> >(std::basic_ostream<char, std::char_traits<char> >&, std::__cxx11::basic_string<char, std::char_traits<char>, std::allocator<char> > const&)@plt>:
   10b94:	e28fc600 	add	ip, pc, #0, 12
   10b98:	e28cca02 	add	ip, ip, #8192	@ 0x2000
   10b9c:	e5bcf4a0 	ldr	pc, [ip, #1184]!	@ 0x4a0

00010ba0 <dup2@plt>:
   10ba0:	e28fc600 	add	ip, pc, #0, 12
   10ba4:	e28cca02 	add	ip, ip, #8192	@ 0x2000
   10ba8:	e5bcf498 	ldr	pc, [ip, #1176]!	@ 0x498

00010bac <__cxa_end_cleanup@plt>:
   10bac:	e28fc600 	add	ip, pc, #0, 12
   10bb0:	e28cca02 	add	ip, ip, #8192	@ 0x2000
   10bb4:	e5bcf490 	ldr	pc, [ip, #1168]!	@ 0x490

00010bb8 <fork@plt>:
   10bb8:	e28fc600 	add	ip, pc, #0, 12
   10bbc:	e28cca02 	add	ip, ip, #8192	@ 0x2000
   10bc0:	e5bcf488 	ldr	pc, [ip, #1160]!	@ 0x488

00010bc4 <std::__cxx11::basic_string<char, std::char_traits<char>, std::allocator<char> >::_M_dispose()@plt>:
   10bc4:	e28fc600 	add	ip, pc, #0, 12
   10bc8:	e28cca02 	add	ip, ip, #8192	@ 0x2000
   10bcc:	e5bcf480 	ldr	pc, [ip, #1152]!	@ 0x480

00010bd0 <std::basic_ostream<char, std::char_traits<char> >& std::__ostream_insert<char, std::char_traits<char> >(std::basic_ostream<char, std::char_traits<char> >&, char const*, int)@plt>:
   10bd0:	e28fc600 	add	ip, pc, #0, 12
   10bd4:	e28cca02 	add	ip, ip, #8192	@ 0x2000
   10bd8:	e5bcf478 	ldr	pc, [ip, #1144]!	@ 0x478

00010bdc <execlp@plt>:
   10bdc:	e28fc600 	add	ip, pc, #0, 12
   10be0:	e28cca02 	add	ip, ip, #8192	@ 0x2000
   10be4:	e5bcf470 	ldr	pc, [ip, #1136]!	@ 0x470

00010be8 <__cxa_rethrow@plt>:
   10be8:	e28fc600 	add	ip, pc, #0, 12
   10bec:	e28cca02 	add	ip, ip, #8192	@ 0x2000
   10bf0:	e5bcf468 	ldr	pc, [ip, #1128]!	@ 0x468

00010bf4 <memcpy@plt>:
   10bf4:	e28fc600 	add	ip, pc, #0, 12
   10bf8:	e28cca02 	add	ip, ip, #8192	@ 0x2000
   10bfc:	e5bcf460 	ldr	pc, [ip, #1120]!	@ 0x460

00010c00 <std::ios_base::Init::Init()@plt>:
   10c00:	e28fc600 	add	ip, pc, #0, 12
   10c04:	e28cca02 	add	ip, ip, #8192	@ 0x2000
   10c08:	e5bcf458 	ldr	pc, [ip, #1112]!	@ 0x458

00010c0c <__cxa_end_catch@plt>:
   10c0c:	e28fc600 	add	ip, pc, #0, 12
   10c10:	e28cca02 	add	ip, ip, #8192	@ 0x2000
   10c14:	e5bcf450 	ldr	pc, [ip, #1104]!	@ 0x450

00010c18 <__gxx_personality_v0@plt>:
   10c18:	e28fc600 	add	ip, pc, #0, 12
   10c1c:	e28cca02 	add	ip, ip, #8192	@ 0x2000
   10c20:	e5bcf448 	ldr	pc, [ip, #1096]!	@ 0x448

00010c24 <std::__cxx11::basic_string<char, std::char_traits<char>, std::allocator<char> >::_M_create(unsigned int&, unsigned int)@plt>:
   10c24:	e28fc600 	add	ip, pc, #0, 12
   10c28:	e28cca02 	add	ip, ip, #8192	@ 0x2000
   10c2c:	e5bcf440 	ldr	pc, [ip, #1088]!	@ 0x440

00010c30 <__gmon_start__@plt>:
   10c30:	e28fc600 	add	ip, pc, #0, 12
   10c34:	e28cca02 	add	ip, ip, #8192	@ 0x2000
   10c38:	e5bcf438 	ldr	pc, [ip, #1080]!	@ 0x438

00010c3c <strdup@plt>:
   10c3c:	e28fc600 	add	ip, pc, #0, 12
   10c40:	e28cca02 	add	ip, ip, #8192	@ 0x2000
   10c44:	e5bcf430 	ldr	pc, [ip, #1072]!	@ 0x430

00010c48 <pipe@plt>:
   10c48:	e28fc600 	add	ip, pc, #0, 12
   10c4c:	e28cca02 	add	ip, ip, #8192	@ 0x2000
   10c50:	e5bcf428 	ldr	pc, [ip, #1064]!	@ 0x428

00010c54 <std::ios_base::Init::~Init()@plt>:
   10c54:	e28fc600 	add	ip, pc, #0, 12
   10c58:	e28cca02 	add	ip, ip, #8192	@ 0x2000
   10c5c:	e5bcf420 	ldr	pc, [ip, #1056]!	@ 0x420

Disassembly of section .text:

00010c60 <main>:
   10c60:	e92d47f0 	push	{r4, r5, r6, r7, r8, r9, sl, lr}
   10c64:	e24dd018 	sub	sp, sp, #24
   10c68:	e28d0010 	add	r0, sp, #16
   10c6c:	ebfffff5 	bl	10c48 <pipe@plt>
   10c70:	ebffffd0 	bl	10bb8 <fork@plt>
   10c74:	e2504000 	subs	r4, r0, #0
   10c78:	ba000027 	blt	10d1c <main+0xbc>
   10c7c:	1a000029 	bne	10d28 <main+0xc8>
   10c80:	e59d0010 	ldr	r0, [sp, #16]
   10c84:	ebffffbc 	bl	10b7c <close@plt>
   10c88:	e3a00001 	mov	r0, #1
   10c8c:	ebffffba 	bl	10b7c <close@plt>
   10c90:	e3a01001 	mov	r1, #1
   10c94:	e59d0014 	ldr	r0, [sp, #20]
   10c98:	ebffffc0 	bl	10ba0 <dup2@plt>
   10c9c:	e59d0014 	ldr	r0, [sp, #20]
   10ca0:	ebffffb5 	bl	10b7c <close@plt>
   10ca4:	e3a00002 	mov	r0, #2
   10ca8:	ebffffb3 	bl	10b7c <close@plt>
   10cac:	e1a00004 	mov	r0, r4
   10cb0:	eb00008d 	bl	10eec <val(int)>
   10cb4:	e1a05000 	mov	r5, r0
   10cb8:	e1a00004 	mov	r0, r4
   10cbc:	eb00008a 	bl	10eec <val(int)>
   10cc0:	e1a06000 	mov	r6, r0
   10cc4:	e3a00001 	mov	r0, #1
   10cc8:	eb000087 	bl	10eec <val(int)>
   10ccc:	e1a07000 	mov	r7, r0
   10cd0:	e3a00002 	mov	r0, #2
   10cd4:	eb000084 	bl	10eec <val(int)>
   10cd8:	e1a08000 	mov	r8, r0
   10cdc:	e3a00003 	mov	r0, #3
   10ce0:	eb000081 	bl	10eec <val(int)>
   10ce4:	e1a09000 	mov	r9, r0
   10ce8:	e3a00004 	mov	r0, #4
   10cec:	eb00007e 	bl	10eec <val(int)>
   10cf0:	e1a0a000 	mov	sl, r0
   10cf4:	e3a00005 	mov	r0, #5
   10cf8:	eb00007b 	bl	10eec <val(int)>
   10cfc:	e1a03008 	mov	r3, r8
   10d00:	e1a02007 	mov	r2, r7
   10d04:	e1a01006 	mov	r1, r6
   10d08:	e58d400c 	str	r4, [sp, #12]
   10d0c:	e88d0600 	stm	sp, {r9, sl}
   10d10:	e58d0008 	str	r0, [sp, #8]
   10d14:	e1a00005 	mov	r0, r5
   10d18:	ebffffaf 	bl	10bdc <execlp@plt>
   10d1c:	e3a00001 	mov	r0, #1
   10d20:	e28dd018 	add	sp, sp, #24
   10d24:	e8bd87f0 	pop	{r4, r5, r6, r7, r8, r9, sl, pc}
   10d28:	e59d0014 	ldr	r0, [sp, #20]
   10d2c:	ebffff92 	bl	10b7c <close@plt>
   10d30:	e3a00000 	mov	r0, #0
   10d34:	ebffff90 	bl	10b7c <close@plt>
   10d38:	e3a01000 	mov	r1, #0
   10d3c:	e59d0010 	ldr	r0, [sp, #16]
   10d40:	ebffff96 	bl	10ba0 <dup2@plt>
   10d44:	e59d0010 	ldr	r0, [sp, #16]
   10d48:	ebffff8b 	bl	10b7c <close@plt>
   10d4c:	eb0000cb 	bl	11080 <flag()>
   10d50:	e3a00000 	mov	r0, #0
   10d54:	eafffff1 	b	10d20 <main+0xc0>

00010d58 <_GLOBAL__sub_I__Z4flagv>:
   10d58:	e92d4010 	push	{r4, lr}
   10d5c:	e59f4018 	ldr	r4, [pc, #24]	@ 10d7c <_GLOBAL__sub_I__Z4flagv+0x24>
   10d60:	e1a00004 	mov	r0, r4
   10d64:	ebffffa5 	bl	10c00 <std::ios_base::Init::Init()@plt>
   10d68:	e1a00004 	mov	r0, r4
   10d6c:	e59f200c 	ldr	r2, [pc, #12]	@ 10d80 <_GLOBAL__sub_I__Z4flagv+0x28>
   10d70:	e8bd4010 	pop	{r4, lr}
   10d74:	e59f1008 	ldr	r1, [pc, #8]	@ 10d84 <_GLOBAL__sub_I__Z4flagv+0x2c>
   10d78:	eaffff67 	b	10b1c <__aeabi_atexit@plt>
   10d7c:	000131b1 			@ <UNDEFINED> instruction: 0x000131b1
   10d80:	0001308c 	andeq	r3, r1, ip, lsl #1
   10d84:	00010c54 	andeq	r0, r1, r4, asr ip

00010d88 <_start>:
   10d88:	e3a0b000 	mov	fp, #0
   10d8c:	e3a0e000 	mov	lr, #0
   10d90:	e49d1004 	pop	{r1}		@ (ldr r1, [sp], #4)
   10d94:	e1a0200d 	mov	r2, sp
   10d98:	e52d2004 	push	{r2}		@ (str r2, [sp, #-4]!)
   10d9c:	e52d0004 	push	{r0}		@ (str r0, [sp, #-4]!)
   10da0:	e59fa01c 	ldr	sl, [pc, #28]	@ 10dc4 <_start+0x3c>
   10da4:	e28f3018 	add	r3, pc, #24
   10da8:	e08aa003 	add	sl, sl, r3
   10dac:	e3a03000 	mov	r3, #0
   10db0:	e52d3004 	push	{r3}		@ (str r3, [sp, #-4]!)
   10db4:	e59f000c 	ldr	r0, [pc, #12]	@ 10dc8 <_start+0x40>
   10db8:	e79a0000 	ldr	r0, [sl, r0]
   10dbc:	ebffff6b 	bl	10b70 <__libc_start_main@plt>
   10dc0:	ebffff70 	bl	10b88 <abort@plt>
   10dc4:	0000223c 	andeq	r2, r0, ip, lsr r2
   10dc8:	00000080 	andeq	r0, r0, r0, lsl #1

00010dcc <call_weak_fn>:
   10dcc:	e59f3014 	ldr	r3, [pc, #20]	@ 10de8 <call_weak_fn+0x1c>
   10dd0:	e59f2014 	ldr	r2, [pc, #20]	@ 10dec <call_weak_fn+0x20>
   10dd4:	e08f3003 	add	r3, pc, r3
   10dd8:	e7932002 	ldr	r2, [r3, r2]
   10ddc:	e3520000 	cmp	r2, #0
   10de0:	012fff1e 	bxeq	lr
   10de4:	eaffff91 	b	10c30 <__gmon_start__@plt>
   10de8:	00002224 	andeq	r2, r0, r4, lsr #4
   10dec:	00000084 	andeq	r0, r0, r4, lsl #1

00010df0 <deregister_tm_clones>:
   10df0:	e59f0018 	ldr	r0, [pc, #24]	@ 10e10 <deregister_tm_clones+0x20>
   10df4:	e59f3018 	ldr	r3, [pc, #24]	@ 10e14 <deregister_tm_clones+0x24>
   10df8:	e1530000 	cmp	r3, r0
   10dfc:	012fff1e 	bxeq	lr
   10e00:	e59f3010 	ldr	r3, [pc, #16]	@ 10e18 <deregister_tm_clones+0x28>
   10e04:	e3530000 	cmp	r3, #0
   10e08:	012fff1e 	bxeq	lr
   10e0c:	e12fff13 	bx	r3
   10e10:	00013090 	muleq	r1, r0, r0
   10e14:	00013090 	muleq	r1, r0, r0
   10e18:	00000000 	andeq	r0, r0, r0

00010e1c <register_tm_clones>:
   10e1c:	e59f0024 	ldr	r0, [pc, #36]	@ 10e48 <register_tm_clones+0x2c>
   10e20:	e59f3024 	ldr	r3, [pc, #36]	@ 10e4c <register_tm_clones+0x30>
   10e24:	e0433000 	sub	r3, r3, r0
   10e28:	e1a01fa3 	lsr	r1, r3, #31
   10e2c:	e0811143 	add	r1, r1, r3, asr #2
   10e30:	e1b010c1 	asrs	r1, r1, #1
   10e34:	012fff1e 	bxeq	lr
   10e38:	e59f3010 	ldr	r3, [pc, #16]	@ 10e50 <register_tm_clones+0x34>
   10e3c:	e3530000 	cmp	r3, #0
   10e40:	012fff1e 	bxeq	lr
   10e44:	e12fff13 	bx	r3
   10e48:	00013090 	muleq	r1, r0, r0
   10e4c:	00013090 	muleq	r1, r0, r0
   10e50:	00000000 	andeq	r0, r0, r0

00010e54 <__do_global_dtors_aux>:
   10e54:	e92d4010 	push	{r4, lr}
   10e58:	e59f4018 	ldr	r4, [pc, #24]	@ 10e78 <__do_global_dtors_aux+0x24>
   10e5c:	e5d43000 	ldrb	r3, [r4]
   10e60:	e3530000 	cmp	r3, #0
   10e64:	18bd8010 	popne	{r4, pc}
   10e68:	ebffffe0 	bl	10df0 <deregister_tm_clones>
   10e6c:	e3a03001 	mov	r3, #1
   10e70:	e5c43000 	strb	r3, [r4]
   10e74:	e8bd8010 	pop	{r4, pc}
   10e78:	000131b0 			@ <UNDEFINED> instruction: 0x000131b0

00010e7c <frame_dummy>:
   10e7c:	eaffffe6 	b	10e1c <register_tm_clones>

00010e80 <std::__cxx11::basic_string<char, std::char_traits<char>, std::allocator<char> >::basic_string(std::__cxx11::basic_string<char, std::char_traits<char>, std::allocator<char> > const&) [clone .isra.0]>:
   10e80:	e2803008 	add	r3, r0, #8
   10e84:	e92d4073 	push	{r0, r1, r4, r5, r6, lr}
   10e88:	e1a04000 	mov	r4, r0
   10e8c:	e5803000 	str	r3, [r0]
   10e90:	e5913004 	ldr	r3, [r1, #4]
   10e94:	e5915000 	ldr	r5, [r1]
   10e98:	e353000f 	cmp	r3, #15
   10e9c:	e0856003 	add	r6, r5, r3
   10ea0:	e58d3004 	str	r3, [sp, #4]
   10ea4:	9a000005 	bls	10ec0 <std::__cxx11::basic_string<char, std::char_traits<char>, std::allocator<char> >::basic_string(std::__cxx11::basic_string<char, std::char_traits<char>, std::allocator<char> > const&) [clone .isra.0]+0x40>
   10ea8:	e3a02000 	mov	r2, #0
   10eac:	e28d1004 	add	r1, sp, #4
   10eb0:	ebffff5b 	bl	10c24 <std::__cxx11::basic_string<char, std::char_traits<char>, std::allocator<char> >::_M_create(unsigned int&, unsigned int)@plt>
   10eb4:	e59d3004 	ldr	r3, [sp, #4]
   10eb8:	e5843008 	str	r3, [r4, #8]
   10ebc:	e5840000 	str	r0, [r4]
   10ec0:	e1a02006 	mov	r2, r6
   10ec4:	e1a01005 	mov	r1, r5
   10ec8:	e5940000 	ldr	r0, [r4]
   10ecc:	ebffff18 	bl	10b34 <std::__cxx11::basic_string<char, std::char_traits<char>, std::allocator<char> >::_S_copy_chars(char*, char*, char*)@plt>
   10ed0:	e59d3004 	ldr	r3, [sp, #4]
   10ed4:	e5942000 	ldr	r2, [r4]
   10ed8:	e3a01000 	mov	r1, #0
   10edc:	e5843004 	str	r3, [r4, #4]
   10ee0:	e7c21003 	strb	r1, [r2, r3]
   10ee4:	e28dd008 	add	sp, sp, #8
   10ee8:	e8bd8070 	pop	{r4, r5, r6, pc}

00010eec <val(int)>:
   10eec:	e92d4010 	push	{r4, lr}
   10ef0:	e24dd080 	sub	sp, sp, #128	@ 0x80
   10ef4:	e1a04000 	mov	r4, r0
   10ef8:	e3a02080 	mov	r2, #128	@ 0x80
   10efc:	e3a01000 	mov	r1, #0
   10f00:	e1a0000d 	mov	r0, sp
   10f04:	ebffff13 	bl	10b58 <memset@plt>
   10f08:	e3540005 	cmp	r4, #5
   10f0c:	979ff104 	ldrls	pc, [pc, r4, lsl #2]
   10f10:	ea00000d 	b	10f4c <val(int)+0x60>
   10f14:	00010f2c 	andeq	r0, r1, ip, lsr #30
   10f18:	00010f5c 	andeq	r0, r1, ip, asr pc
   10f1c:	00010f70 	andeq	r0, r1, r0, ror pc
   10f20:	00010f80 	andeq	r0, r1, r0, lsl #31
   10f24:	00010f90 	muleq	r1, r0, pc	@ <UNPREDICTABLE>
   10f28:	00010f9c 	muleq	r1, ip, pc	@ <UNPREDICTABLE>
   10f2c:	e3a03077 	mov	r3, #119	@ 0x77
   10f30:	e5cd3000 	strb	r3, [sp]
   10f34:	e3a03067 	mov	r3, #103	@ 0x67
   10f38:	e5cd3001 	strb	r3, [sp, #1]
   10f3c:	e3a03065 	mov	r3, #101	@ 0x65
   10f40:	e5cd3002 	strb	r3, [sp, #2]
   10f44:	e3a03074 	mov	r3, #116	@ 0x74
   10f48:	e5cd3003 	strb	r3, [sp, #3]
   10f4c:	e1a0000d 	mov	r0, sp
   10f50:	ebffff39 	bl	10c3c <strdup@plt>
   10f54:	e28dd080 	add	sp, sp, #128	@ 0x80
   10f58:	e8bd8010 	pop	{r4, pc}
   10f5c:	e3a0302d 	mov	r3, #45	@ 0x2d
   10f60:	e5cd3000 	strb	r3, [sp]
   10f64:	e3a03071 	mov	r3, #113	@ 0x71
   10f68:	e5cd3001 	strb	r3, [sp, #1]
   10f6c:	eafffff6 	b	10f4c <val(int)+0x60>
   10f70:	e3a0302d 	mov	r3, #45	@ 0x2d
   10f74:	e5cd3000 	strb	r3, [sp]
   10f78:	e3a03053 	mov	r3, #83	@ 0x53
   10f7c:	eafffff9 	b	10f68 <val(int)+0x7c>
   10f80:	e3a0302d 	mov	r3, #45	@ 0x2d
   10f84:	e5cd3000 	strb	r3, [sp]
   10f88:	e3a0304f 	mov	r3, #79	@ 0x4f
   10f8c:	eafffff5 	b	10f68 <val(int)+0x7c>
   10f90:	e3a0302d 	mov	r3, #45	@ 0x2d
   10f94:	e5cd3000 	strb	r3, [sp]
   10f98:	eaffffeb 	b	10f4c <val(int)+0x60>
   10f9c:	e3a03068 	mov	r3, #104	@ 0x68
   10fa0:	e5cd3000 	strb	r3, [sp]
   10fa4:	e3a02074 	mov	r2, #116	@ 0x74
   10fa8:	e3a01070 	mov	r1, #112	@ 0x70
   10fac:	e3a00073 	mov	r0, #115	@ 0x73
   10fb0:	e3a0303a 	mov	r3, #58	@ 0x3a
   10fb4:	e5cd2001 	strb	r2, [sp, #1]
   10fb8:	e5cd2002 	strb	r2, [sp, #2]
   10fbc:	e5cd1003 	strb	r1, [sp, #3]
   10fc0:	e5cd0004 	strb	r0, [sp, #4]
   10fc4:	e5cd3005 	strb	r3, [sp, #5]
   10fc8:	e3a0302f 	mov	r3, #47	@ 0x2f
   10fcc:	e5cd3006 	strb	r3, [sp, #6]
   10fd0:	e5cd3007 	strb	r3, [sp, #7]
   10fd4:	e5cd1008 	strb	r1, [sp, #8]
   10fd8:	e3a01061 	mov	r1, #97	@ 0x61
   10fdc:	e5cd1009 	strb	r1, [sp, #9]
   10fe0:	e5cd000a 	strb	r0, [sp, #10]
   10fe4:	e5cd200b 	strb	r2, [sp, #11]
   10fe8:	e3a02065 	mov	r2, #101	@ 0x65
   10fec:	e5cd200c 	strb	r2, [sp, #12]
   10ff0:	e3a00069 	mov	r0, #105	@ 0x69
   10ff4:	e3a02062 	mov	r2, #98	@ 0x62
   10ff8:	e5cd200d 	strb	r2, [sp, #13]
   10ffc:	e5cd000e 	strb	r0, [sp, #14]
   11000:	e3a0006e 	mov	r0, #110	@ 0x6e
   11004:	e5cd000f 	strb	r0, [sp, #15]
   11008:	e3a0002e 	mov	r0, #46	@ 0x2e
   1100c:	e5cd0010 	strb	r0, [sp, #16]
   11010:	e3a00063 	mov	r0, #99	@ 0x63
   11014:	e5cd0011 	strb	r0, [sp, #17]
   11018:	e3a0006f 	mov	r0, #111	@ 0x6f
   1101c:	e5cd0012 	strb	r0, [sp, #18]
   11020:	e3a0006d 	mov	r0, #109	@ 0x6d
   11024:	e5cd0013 	strb	r0, [sp, #19]
   11028:	e3a00072 	mov	r0, #114	@ 0x72
   1102c:	e5cd3014 	strb	r3, [sp, #20]
   11030:	e5cd0015 	strb	r0, [sp, #21]
   11034:	e5cd1016 	strb	r1, [sp, #22]
   11038:	e3a01077 	mov	r1, #119	@ 0x77
   1103c:	e5cd1017 	strb	r1, [sp, #23]
   11040:	e5cd3018 	strb	r3, [sp, #24]
   11044:	e3a03055 	mov	r3, #85	@ 0x55
   11048:	e5cd2019 	strb	r2, [sp, #25]
   1104c:	e5cd301a 	strb	r3, [sp, #26]
   11050:	e3a03039 	mov	r3, #57	@ 0x39
   11054:	e5cd301b 	strb	r3, [sp, #27]
   11058:	e3a03032 	mov	r3, #50	@ 0x32
   1105c:	e5cd301c 	strb	r3, [sp, #28]
   11060:	e3a0305a 	mov	r3, #90	@ 0x5a
   11064:	e5cd301d 	strb	r3, [sp, #29]
   11068:	e3a02079 	mov	r2, #121	@ 0x79
   1106c:	e3a03056 	mov	r3, #86	@ 0x56
   11070:	e5cd301e 	strb	r3, [sp, #30]
   11074:	e5cd201f 	strb	r2, [sp, #31]
   11078:	e5cd3020 	strb	r3, [sp, #32]
   1107c:	eaffffb2 	b	10f4c <val(int)+0x60>

00011080 <flag()>:
   11080:	e92d4030 	push	{r4, r5, lr}
   11084:	e24dd02c 	sub	sp, sp, #44	@ 0x2c
   11088:	e59f5110 	ldr	r5, [pc, #272]	@ 111a0 <flag()+0x120>
   1108c:	e28d3018 	add	r3, sp, #24
   11090:	e58d3010 	str	r3, [sp, #16]
   11094:	e3a03000 	mov	r3, #0
   11098:	e58d3014 	str	r3, [sp, #20]
   1109c:	e5cd3018 	strb	r3, [sp, #24]
   110a0:	e58d3004 	str	r3, [sp, #4]
   110a4:	e58d3008 	str	r3, [sp, #8]
   110a8:	e58d300c 	str	r3, [sp, #12]
   110ac:	e28d1010 	add	r1, sp, #16
   110b0:	e1a00005 	mov	r0, r5
   110b4:	ebfffe9b 	bl	10b28 <std::basic_istream<char, std::char_traits<char> >& std::getline<char, std::char_traits<char>, std::allocator<char> >(std::basic_istream<char, std::char_traits<char> >&, std::__cxx11::basic_string<char, std::char_traits<char>, std::allocator<char> >&)@plt>
   110b8:	ea00000d 	b	110f4 <flag()+0x74>
   110bc:	e59d300c 	ldr	r3, [sp, #12]
   110c0:	e1540003 	cmp	r4, r3
   110c4:	0a000005 	beq	110e0 <flag()+0x60>
   110c8:	e28d1010 	add	r1, sp, #16
   110cc:	e1a00004 	mov	r0, r4
   110d0:	ebffff6a 	bl	10e80 <std::__cxx11::basic_string<char, std::char_traits<char>, std::allocator<char> >::basic_string(std::__cxx11::basic_string<char, std::char_traits<char>, std::allocator<char> > const&) [clone .isra.0]>
   110d4:	e2844018 	add	r4, r4, #24
   110d8:	e58d4008 	str	r4, [sp, #8]
   110dc:	eafffff2 	b	110ac <flag()+0x2c>
   110e0:	e28d2010 	add	r2, sp, #16
   110e4:	e1a01004 	mov	r1, r4
   110e8:	e28d0004 	add	r0, sp, #4
   110ec:	eb00005e 	bl	1126c <void std::vector<std::__cxx11::basic_string<char, std::char_traits<char>, std::allocator<char> >, std::allocator<std::__cxx11::basic_string<char, std::char_traits<char>, std::allocator<char> > > >::_M_realloc_insert<std::__cxx11::basic_string<char, std::char_traits<char>, std::allocator<char> > const&>(__gnu_cxx::__normal_iterator<std::__cxx11::basic_string<char, std::char_traits<char>, std::allocator<char> >*, std::vector<std::__cxx11::basic_string<char, std::char_traits<char>, std::allocator<char> >, std::allocator<std::__cxx11::basic_string<char, std::char_traits<char>, std::allocator<char> > > > >, std::__cxx11::basic_string<char, std::char_traits<char>, std::allocator<char> > const&)>
   110f0:	eaffffed 	b	110ac <flag()+0x2c>
   110f4:	e5903000 	ldr	r3, [r0]
   110f8:	e59d4008 	ldr	r4, [sp, #8]
   110fc:	e513300c 	ldr	r3, [r3, #-12]
   11100:	e0800003 	add	r0, r0, r3
   11104:	e5903014 	ldr	r3, [r0, #20]
   11108:	e3130005 	tst	r3, #5
   1110c:	0affffea 	beq	110bc <flag()+0x3c>
   11110:	e59d1004 	ldr	r1, [sp, #4]
   11114:	e0444001 	sub	r4, r4, r1
   11118:	e3540000 	cmp	r4, #0
   1111c:	ca00000a 	bgt	1114c <flag()+0xcc>
   11120:	e59f307c 	ldr	r3, [pc, #124]	@ 111a4 <flag()+0x124>
   11124:	e1a041c4 	asr	r4, r4, #3
   11128:	e0040493 	mul	r4, r3, r4
   1112c:	e3540001 	cmp	r4, #1
   11130:	0a000005 	beq	1114c <flag()+0xcc>
   11134:	e28d0004 	add	r0, sp, #4
   11138:	eb00003a 	bl	11228 <std::vector<std::__cxx11::basic_string<char, std::char_traits<char>, std::allocator<char> >, std::allocator<std::__cxx11::basic_string<char, std::char_traits<char>, std::allocator<char> > > >::~vector()>
   1113c:	e28d0010 	add	r0, sp, #16
   11140:	ebfffe9f 	bl	10bc4 <std::__cxx11::basic_string<char, std::char_traits<char>, std::allocator<char> >::_M_dispose()@plt>
   11144:	e28dd02c 	add	sp, sp, #44	@ 0x2c
   11148:	e8bd8030 	pop	{r4, r5, pc}
   1114c:	e59f0054 	ldr	r0, [pc, #84]	@ 111a8 <flag()+0x128>
   11150:	ebfffe8f 	bl	10b94 <std::basic_ostream<char, std::char_traits<char> >& std::operator<< <char, std::char_traits<char>, std::allocator<char> >(std::basic_ostream<char, std::char_traits<char> >&, std::__cxx11::basic_string<char, std::char_traits<char>, std::allocator<char> > const&)@plt>
   11154:	e5902000 	ldr	r2, [r0]
   11158:	e3a0100a 	mov	r1, #10
   1115c:	e5cd1003 	strb	r1, [sp, #3]
   11160:	e512200c 	ldr	r2, [r2, #-12]
   11164:	e0803002 	add	r3, r0, r2
   11168:	e5933008 	ldr	r3, [r3, #8]
   1116c:	e3530000 	cmp	r3, #0
   11170:	0a000003 	beq	11184 <flag()+0x104>
   11174:	e3a02001 	mov	r2, #1
   11178:	e28d1003 	add	r1, sp, #3
   1117c:	ebfffe93 	bl	10bd0 <std::basic_ostream<char, std::char_traits<char> >& std::__ostream_insert<char, std::char_traits<char> >(std::basic_ostream<char, std::char_traits<char> >&, char const*, int)@plt>
   11180:	eaffffeb 	b	11134 <flag()+0xb4>
   11184:	ebfffe5e 	bl	10b04 <std::basic_ostream<char, std::char_traits<char> >::put(char)@plt>
   11188:	eaffffe9 	b	11134 <flag()+0xb4>
   1118c:	e28d0004 	add	r0, sp, #4
   11190:	eb000024 	bl	11228 <std::vector<std::__cxx11::basic_string<char, std::char_traits<char>, std::allocator<char> >, std::allocator<std::__cxx11::basic_string<char, std::char_traits<char>, std::allocator<char> > > >::~vector()>
   11194:	e28d0010 	add	r0, sp, #16
   11198:	ebfffe89 	bl	10bc4 <std::__cxx11::basic_string<char, std::char_traits<char>, std::allocator<char> >::_M_dispose()@plt>
   1119c:	ebfffe82 	bl	10bac <__cxa_end_cleanup@plt>
   111a0:	00013120 	andeq	r3, r1, r0, lsr #2
   111a4:	aaaaaaab 	bge	feabbc58 <__bss_end__+0xfeaa8aa4>
   111a8:	00013090 	muleq	r1, r0, r0

000111ac <std::__cxx11::basic_string<char, std::char_traits<char>, std::allocator<char> >* std::__relocate_a_1<std::__cxx11::basic_string<char, std::char_traits<char>, std::allocator<char> >*, std::__cxx11::basic_string<char, std::char_traits<char>, std::allocator<char> >*, std::allocator<std::__cxx11::basic_string<char, std::char_traits<char>, std::allocator<char> > > >(std::__cxx11::basic_string<char, std::char_traits<char>, std::allocator<char> >*, std::__cxx11::basic_string<char, std::char_traits<char>, std::allocator<char> >*, std::__cxx11::basic_string<char, std::char_traits<char>, std::allocator<char> >*, std::allocator<std::__cxx11::basic_string<char, std::char_traits<char>, std::allocator<char> > >&) [clone .isra.0]>:
   111ac:	e92d41f0 	push	{r4, r5, r6, r7, r8, lr}
   111b0:	e1a04000 	mov	r4, r0
   111b4:	e1a07001 	mov	r7, r1
   111b8:	e2825008 	add	r5, r2, #8
   111bc:	e3a08000 	mov	r8, #0
   111c0:	e1540007 	cmp	r4, r7
   111c4:	e2450008 	sub	r0, r5, #8
   111c8:	08bd81f0 	popeq	{r4, r5, r6, r7, r8, pc}
   111cc:	e1a06004 	mov	r6, r4
   111d0:	e5055008 	str	r5, [r5, #-8]
   111d4:	e4963008 	ldr	r3, [r6], #8
   111d8:	e5942004 	ldr	r2, [r4, #4]
   111dc:	e1530006 	cmp	r3, r6
   111e0:	15053008 	strne	r3, [r5, #-8]
   111e4:	15943008 	ldrne	r3, [r4, #8]
   111e8:	15853000 	strne	r3, [r5]
   111ec:	1a000004 	bne	11204 <std::__cxx11::basic_string<char, std::char_traits<char>, std::allocator<char> >* std::__relocate_a_1<std::__cxx11::basic_string<char, std::char_traits<char>, std::allocator<char> >*, std::__cxx11::basic_string<char, std::char_traits<char>, std::allocator<char> >*, std::allocator<std::__cxx11::basic_string<char, std::char_traits<char>, std::allocator<char> > > >(std::__cxx11::basic_string<char, std::char_traits<char>, std::allocator<char> >*, std::__cxx11::basic_string<char, std::char_traits<char>, std::allocator<char> >*, std::__cxx11::basic_string<char, std::char_traits<char>, std::allocator<char> >*, std::allocator<std::__cxx11::basic_string<char, std::char_traits<char>, std::allocator<char> > >&) [clone .isra.0]+0x58>
   111f0:	e2922001 	adds	r2, r2, #1
   111f4:	0a000002 	beq	11204 <std::__cxx11::basic_string<char, std::char_traits<char>, std::allocator<char> >* std::__relocate_a_1<std::__cxx11::basic_string<char, std::char_traits<char>, std::allocator<char> >*, std::__cxx11::basic_string<char, std::char_traits<char>, std::allocator<char> >*, std::allocator<std::__cxx11::basic_string<char, std::char_traits<char>, std::allocator<char> > > >(std::__cxx11::basic_string<char, std::char_traits<char>, std::allocator<char> >*, std::__cxx11::basic_string<char, std::char_traits<char>, std::allocator<char> >*, std::__cxx11::basic_string<char, std::char_traits<char>, std::allocator<char> >*, std::allocator<std::__cxx11::basic_string<char, std::char_traits<char>, std::allocator<char> > >&) [clone .isra.0]+0x58>
   111f8:	e1a01006 	mov	r1, r6
   111fc:	e1a00005 	mov	r0, r5
   11200:	ebfffe7b 	bl	10bf4 <memcpy@plt>
   11204:	e5943004 	ldr	r3, [r4, #4]
   11208:	e1a00004 	mov	r0, r4
   1120c:	e5053004 	str	r3, [r5, #-4]
   11210:	e8840140 	stm	r4, {r6, r8}
   11214:	e5c48008 	strb	r8, [r4, #8]
   11218:	ebfffe69 	bl	10bc4 <std::__cxx11::basic_string<char, std::char_traits<char>, std::allocator<char> >::_M_dispose()@plt>
   1121c:	e2844018 	add	r4, r4, #24
   11220:	e2855018 	add	r5, r5, #24
   11224:	eaffffe5 	b	111c0 <std::__cxx11::basic_string<char, std::char_traits<char>, std::allocator<char> >* std::__relocate_a_1<std::__cxx11::basic_string<char, std::char_traits<char>, std::allocator<char> >*, std::__cxx11::basic_string<char, std::char_traits<char>, std::allocator<char> >*, std::allocator<std::__cxx11::basic_string<char, std::char_traits<char>, std::allocator<char> > > >(std::__cxx11::basic_string<char, std::char_traits<char>, std::allocator<char> >*, std::__cxx11::basic_string<char, std::char_traits<char>, std::allocator<char> >*, std::__cxx11::basic_string<char, std::char_traits<char>, std::allocator<char> >*, std::allocator<std::__cxx11::basic_string<char, std::char_traits<char>, std::allocator<char> > >&) [clone .isra.0]+0x14>

00011228 <std::vector<std::__cxx11::basic_string<char, std::char_traits<char>, std::allocator<char> >, std::allocator<std::__cxx11::basic_string<char, std::char_traits<char>, std::allocator<char> > > >::~vector()>:
   11228:	e92d4070 	push	{r4, r5, r6, lr}
   1122c:	e1a04000 	mov	r4, r0
   11230:	e8900060 	ldm	r0, {r5, r6}
   11234:	e1560005 	cmp	r6, r5
   11238:	1a000007 	bne	1125c <std::vector<std::__cxx11::basic_string<char, std::char_traits<char>, std::allocator<char> >, std::allocator<std::__cxx11::basic_string<char, std::char_traits<char>, std::allocator<char> > > >::~vector()+0x34>
   1123c:	e5940000 	ldr	r0, [r4]
   11240:	e3500000 	cmp	r0, #0
   11244:	0a000002 	beq	11254 <std::vector<std::__cxx11::basic_string<char, std::char_traits<char>, std::allocator<char> >, std::allocator<std::__cxx11::basic_string<char, std::char_traits<char>, std::allocator<char> > > >::~vector()+0x2c>
   11248:	e5941008 	ldr	r1, [r4, #8]
   1124c:	e0411000 	sub	r1, r1, r0
   11250:	ebfffe43 	bl	10b64 <operator delete(void*, unsigned int)@plt>
   11254:	e1a00004 	mov	r0, r4
   11258:	e8bd8070 	pop	{r4, r5, r6, pc}
   1125c:	e1a00005 	mov	r0, r5
   11260:	ebfffe57 	bl	10bc4 <std::__cxx11::basic_string<char, std::char_traits<char>, std::allocator<char> >::_M_dispose()@plt>
   11264:	e2855018 	add	r5, r5, #24
   11268:	eafffff1 	b	11234 <std::vector<std::__cxx11::basic_string<char, std::char_traits<char>, std::allocator<char> >, std::allocator<std::__cxx11::basic_string<char, std::char_traits<char>, std::allocator<char> > > >::~vector()+0xc>

0001126c <void std::vector<std::__cxx11::basic_string<char, std::char_traits<char>, std::allocator<char> >, std::allocator<std::__cxx11::basic_string<char, std::char_traits<char>, std::allocator<char> > > >::_M_realloc_insert<std::__cxx11::basic_string<char, std::char_traits<char>, std::allocator<char> > const&>(__gnu_cxx::__normal_iterator<std::__cxx11::basic_string<char, std::char_traits<char>, std::allocator<char> >*, std::vector<std::__cxx11::basic_string<char, std::char_traits<char>, std::allocator<char> >, std::allocator<std::__cxx11::basic_string<char, std::char_traits<char>, std::allocator<char> > > > >, std::__cxx11::basic_string<char, std::char_traits<char>, std::allocator<char> > const&)>:
   1126c:	e92d4ff7 	push	{r0, r1, r2, r4, r5, r6, r7, r8, r9, sl, fp, lr}
   11270:	e8900280 	ldm	r0, {r7, r9}
   11274:	e59f3110 	ldr	r3, [pc, #272]	@ 1138c <void std::vector<std::__cxx11::basic_string<char, std::char_traits<char>, std::allocator<char> >, std::allocator<std::__cxx11::basic_string<char, std::char_traits<char>, std::allocator<char> > > >::_M_realloc_insert<std::__cxx11::basic_string<char, std::char_traits<char>, std::allocator<char> > const&>(__gnu_cxx::__normal_iterator<std::__cxx11::basic_string<char, std::char_traits<char>, std::allocator<char> >*, std::vector<std::__cxx11::basic_string<char, std::char_traits<char>, std::allocator<char> >, std::allocator<std::__cxx11::basic_string<char, std::char_traits<char>, std::allocator<char> > > > >, std::__cxx11::basic_string<char, std::char_traits<char>, std::allocator<char> > const&)+0x120>
   11278:	e0494007 	sub	r4, r9, r7
   1127c:	e1a041c4 	asr	r4, r4, #3
   11280:	e0040493 	mul	r4, r3, r4
   11284:	e59f3104 	ldr	r3, [pc, #260]	@ 11390 <void std::vector<std::__cxx11::basic_string<char, std::char_traits<char>, std::allocator<char> >, std::allocator<std::__cxx11::basic_string<char, std::char_traits<char>, std::allocator<char> > > >::_M_realloc_insert<std::__cxx11::basic_string<char, std::char_traits<char>, std::allocator<char> > const&>(__gnu_cxx::__normal_iterator<std::__cxx11::basic_string<char, std::char_traits<char>, std::allocator<char> >*, std::vector<std::__cxx11::basic_string<char, std::char_traits<char>, std::allocator<char> >, std::allocator<std::__cxx11::basic_string<char, std::char_traits<char>, std::allocator<char> > > > >, std::__cxx11::basic_string<char, std::char_traits<char>, std::allocator<char> > const&)+0x124>
   11288:	e1540003 	cmp	r4, r3
   1128c:	1a000001 	bne	11298 <void std::vector<std::__cxx11::basic_string<char, std::char_traits<char>, std::allocator<char> >, std::allocator<std::__cxx11::basic_string<char, std::char_traits<char>, std::allocator<char> > > >::_M_realloc_insert<std::__cxx11::basic_string<char, std::char_traits<char>, std::allocator<char> > const&>(__gnu_cxx::__normal_iterator<std::__cxx11::basic_string<char, std::char_traits<char>, std::allocator<char> >*, std::vector<std::__cxx11::basic_string<char, std::char_traits<char>, std::allocator<char> >, std::allocator<std::__cxx11::basic_string<char, std::char_traits<char>, std::allocator<char> > > > >, std::__cxx11::basic_string<char, std::char_traits<char>, std::allocator<char> > const&)+0x2c>
   11290:	e59f00fc 	ldr	r0, [pc, #252]	@ 11394 <void std::vector<std::__cxx11::basic_string<char, std::char_traits<char>, std::allocator<char> >, std::allocator<std::__cxx11::basic_string<char, std::char_traits<char>, std::allocator<char> > > >::_M_realloc_insert<std::__cxx11::basic_string<char, std::char_traits<char>, std::allocator<char> > const&>(__gnu_cxx::__normal_iterator<std::__cxx11::basic_string<char, std::char_traits<char>, std::allocator<char> >*, std::vector<std::__cxx11::basic_string<char, std::char_traits<char>, std::allocator<char> >, std::allocator<std::__cxx11::basic_string<char, std::char_traits<char>, std::allocator<char> > > > >, std::__cxx11::basic_string<char, std::char_traits<char>, std::allocator<char> > const&)+0x128>
   11294:	ebfffe2c 	bl	10b4c <std::__throw_length_error(char const*)@plt>
   11298:	e1590007 	cmp	r9, r7
   1129c:	e1a08001 	mov	r8, r1
   112a0:	e1a01002 	mov	r1, r2
   112a4:	11a02004 	movne	r2, r4
   112a8:	03a02001 	moveq	r2, #1
   112ac:	e0944002 	adds	r4, r4, r2
   112b0:	e1a06000 	mov	r6, r0
   112b4:	e048b007 	sub	fp, r8, r7
   112b8:	2a00000d 	bcs	112f4 <void std::vector<std::__cxx11::basic_string<char, std::char_traits<char>, std::allocator<char> >, std::allocator<std::__cxx11::basic_string<char, std::char_traits<char>, std::allocator<char> > > >::_M_realloc_insert<std::__cxx11::basic_string<char, std::char_traits<char>, std::allocator<char> > const&>(__gnu_cxx::__normal_iterator<std::__cxx11::basic_string<char, std::char_traits<char>, std::allocator<char> >*, std::vector<std::__cxx11::basic_string<char, std::char_traits<char>, std::allocator<char> >, std::allocator<std::__cxx11::basic_string<char, std::char_traits<char>, std::allocator<char> > > > >, std::__cxx11::basic_string<char, std::char_traits<char>, std::allocator<char> > const&)+0x88>
   112bc:	e3540000 	cmp	r4, #0
   112c0:	0a000014 	beq	11318 <void std::vector<std::__cxx11::basic_string<char, std::char_traits<char>, std::allocator<char> >, std::allocator<std::__cxx11::basic_string<char, std::char_traits<char>, std::allocator<char> > > >::_M_realloc_insert<std::__cxx11::basic_string<char, std::char_traits<char>, std::allocator<char> > const&>(__gnu_cxx::__normal_iterator<std::__cxx11::basic_string<char, std::char_traits<char>, std::allocator<char> >*, std::vector<std::__cxx11::basic_string<char, std::char_traits<char>, std::allocator<char> >, std::allocator<std::__cxx11::basic_string<char, std::char_traits<char>, std::allocator<char> > > > >, std::__cxx11::basic_string<char, std::char_traits<char>, std::allocator<char> > const&)+0xac>
   112c4:	e1540003 	cmp	r4, r3
   112c8:	21a04003 	movcs	r4, r3
   112cc:	e3a0a018 	mov	sl, #24
   112d0:	e58d1004 	str	r1, [sp, #4]
   112d4:	e00a049a 	mul	sl, sl, r4
   112d8:	e1a0000a 	mov	r0, sl
   112dc:	ebfffe0b 	bl	10b10 <operator new(unsigned int)@plt>
   112e0:	e59d1004 	ldr	r1, [sp, #4]
   112e4:	e1a05000 	mov	r5, r0
   112e8:	e080000b 	add	r0, r0, fp
   112ec:	ebfffee3 	bl	10e80 <std::__cxx11::basic_string<char, std::char_traits<char>, std::allocator<char> >::basic_string(std::__cxx11::basic_string<char, std::char_traits<char>, std::allocator<char> > const&) [clone .isra.0]>
   112f0:	ea000010 	b	11338 <void std::vector<std::__cxx11::basic_string<char, std::char_traits<char>, std::allocator<char> >, std::allocator<std::__cxx11::basic_string<char, std::char_traits<char>, std::allocator<char> > > >::_M_realloc_insert<std::__cxx11::basic_string<char, std::char_traits<char>, std::allocator<char> > const&>(__gnu_cxx::__normal_iterator<std::__cxx11::basic_string<char, std::char_traits<char>, std::allocator<char> >*, std::vector<std::__cxx11::basic_string<char, std::char_traits<char>, std::allocator<char> >, std::allocator<std::__cxx11::basic_string<char, std::char_traits<char>, std::allocator<char> > > > >, std::__cxx11::basic_string<char, std::char_traits<char>, std::allocator<char> > const&)+0xcc>
   112f4:	e1a04003 	mov	r4, r3
   112f8:	eafffff3 	b	112cc <void std::vector<std::__cxx11::basic_string<char, std::char_traits<char>, std::allocator<char> >, std::allocator<std::__cxx11::basic_string<char, std::char_traits<char>, std::allocator<char> > > >::_M_realloc_insert<std::__cxx11::basic_string<char, std::char_traits<char>, std::allocator<char> > const&>(__gnu_cxx::__normal_iterator<std::__cxx11::basic_string<char, std::char_traits<char>, std::allocator<char> >*, std::vector<std::__cxx11::basic_string<char, std::char_traits<char>, std::allocator<char> >, std::allocator<std::__cxx11::basic_string<char, std::char_traits<char>, std::allocator<char> > > > >, std::__cxx11::basic_string<char, std::char_traits<char>, std::allocator<char> > const&)+0x60>
   112fc:	ebfffe0f 	bl	10b40 <__cxa_begin_catch@plt>
   11300:	e1a0100a 	mov	r1, sl
   11304:	e1a00005 	mov	r0, r5
   11308:	ebfffe15 	bl	10b64 <operator delete(void*, unsigned int)@plt>
   1130c:	ebfffe35 	bl	10be8 <__cxa_rethrow@plt>
   11310:	ebfffe3d 	bl	10c0c <__cxa_end_catch@plt>
   11314:	ebfffe24 	bl	10bac <__cxa_end_cleanup@plt>
   11318:	e1a0000b 	mov	r0, fp
   1131c:	ebfffed7 	bl	10e80 <std::__cxx11::basic_string<char, std::char_traits<char>, std::allocator<char> >::basic_string(std::__cxx11::basic_string<char, std::char_traits<char>, std::allocator<char> > const&) [clone .isra.0]>
   11320:	ea000003 	b	11334 <void std::vector<std::__cxx11::basic_string<char, std::char_traits<char>, std::allocator<char> >, std::allocator<std::__cxx11::basic_string<char, std::char_traits<char>, std::allocator<char> > > >::_M_realloc_insert<std::__cxx11::basic_string<char, std::char_traits<char>, std::allocator<char> > const&>(__gnu_cxx::__normal_iterator<std::__cxx11::basic_string<char, std::char_traits<char>, std::allocator<char> >*, std::vector<std::__cxx11::basic_string<char, std::char_traits<char>, std::allocator<char> >, std::allocator<std::__cxx11::basic_string<char, std::char_traits<char>, std::allocator<char> > > > >, std::__cxx11::basic_string<char, std::char_traits<char>, std::allocator<char> > const&)+0xc8>
   11324:	ebfffe05 	bl	10b40 <__cxa_begin_catch@plt>
   11328:	e1a0000b 	mov	r0, fp
   1132c:	ebfffe24 	bl	10bc4 <std::__cxx11::basic_string<char, std::char_traits<char>, std::allocator<char> >::_M_dispose()@plt>
   11330:	eafffff5 	b	1130c <void std::vector<std::__cxx11::basic_string<char, std::char_traits<char>, std::allocator<char> >, std::allocator<std::__cxx11::basic_string<char, std::char_traits<char>, std::allocator<char> > > >::_M_realloc_insert<std::__cxx11::basic_string<char, std::char_traits<char>, std::allocator<char> > const&>(__gnu_cxx::__normal_iterator<std::__cxx11::basic_string<char, std::char_traits<char>, std::allocator<char> >*, std::vector<std::__cxx11::basic_string<char, std::char_traits<char>, std::allocator<char> >, std::allocator<std::__cxx11::basic_string<char, std::char_traits<char>, std::allocator<char> > > > >, std::__cxx11::basic_string<char, std::char_traits<char>, std::allocator<char> > const&)+0xa0>
   11334:	e3a05000 	mov	r5, #0
   11338:	e1a01008 	mov	r1, r8
   1133c:	e1a02005 	mov	r2, r5
   11340:	e1a00007 	mov	r0, r7
   11344:	ebffff98 	bl	111ac <std::__cxx11::basic_string<char, std::char_traits<char>, std::allocator<char> >* std::__relocate_a_1<std::__cxx11::basic_string<char, std::char_traits<char>, std::allocator<char> >*, std::__cxx11::basic_string<char, std::char_traits<char>, std::allocator<char> >*, std::allocator<std::__cxx11::basic_string<char, std::char_traits<char>, std::allocator<char> > > >(std::__cxx11::basic_string<char, std::char_traits<char>, std::allocator<char> >*, std::__cxx11::basic_string<char, std::char_traits<char>, std::allocator<char> >*, std::__cxx11::basic_string<char, std::char_traits<char>, std::allocator<char> >*, std::allocator<std::__cxx11::basic_string<char, std::char_traits<char>, std::allocator<char> > >&) [clone .isra.0]>
   11348:	e1a01009 	mov	r1, r9
   1134c:	e2802018 	add	r2, r0, #24
   11350:	e1a00008 	mov	r0, r8
   11354:	ebffff94 	bl	111ac <std::__cxx11::basic_string<char, std::char_traits<char>, std::allocator<char> >* std::__relocate_a_1<std::__cxx11::basic_string<char, std::char_traits<char>, std::allocator<char> >*, std::__cxx11::basic_string<char, std::char_traits<char>, std::allocator<char> >*, std::allocator<std::__cxx11::basic_string<char, std::char_traits<char>, std::allocator<char> > > >(std::__cxx11::basic_string<char, std::char_traits<char>, std::allocator<char> >*, std::__cxx11::basic_string<char, std::char_traits<char>, std::allocator<char> >*, std::__cxx11::basic_string<char, std::char_traits<char>, std::allocator<char> >*, std::allocator<std::__cxx11::basic_string<char, std::char_traits<char>, std::allocator<char> > >&) [clone .isra.0]>
   11358:	e3570000 	cmp	r7, #0
   1135c:	e1a08000 	mov	r8, r0
   11360:	0a000003 	beq	11374 <void std::vector<std::__cxx11::basic_string<char, std::char_traits<char>, std::allocator<char> >, std::allocator<std::__cxx11::basic_string<char, std::char_traits<char>, std::allocator<char> > > >::_M_realloc_insert<std::__cxx11::basic_string<char, std::char_traits<char>, std::allocator<char> > const&>(__gnu_cxx::__normal_iterator<std::__cxx11::basic_string<char, std::char_traits<char>, std::allocator<char> >*, std::vector<std::__cxx11::basic_string<char, std::char_traits<char>, std::allocator<char> >, std::allocator<std::__cxx11::basic_string<char, std::char_traits<char>, std::allocator<char> > > > >, std::__cxx11::basic_string<char, std::char_traits<char>, std::allocator<char> > const&)+0x108>
   11364:	e5961008 	ldr	r1, [r6, #8]
   11368:	e1a00007 	mov	r0, r7
   1136c:	e0411007 	sub	r1, r1, r7
   11370:	ebfffdfb 	bl	10b64 <operator delete(void*, unsigned int)@plt>
   11374:	e3a03018 	mov	r3, #24
   11378:	e8860120 	stm	r6, {r5, r8}
   1137c:	e0255493 	mla	r5, r3, r4, r5
   11380:	e5865008 	str	r5, [r6, #8]
   11384:	e28dd00c 	add	sp, sp, #12
   11388:	e8bd8ff0 	pop	{r4, r5, r6, r7, r8, r9, sl, fp, pc}
   1138c:	aaaaaaab 	bge	feabbe40 <__bss_end__+0xfeaa8c8c>
   11390:	05555555 	ldrbeq	r5, [r5, #-1365]	@ 0xfffffaab
   11394:	00011434 	andeq	r1, r1, r4, lsr r4

Disassembly of section .fini:

00011398 <_fini>:
   11398:	e92d4008 	push	{r3, lr}
   1139c:	e8bd8008 	pop	{r3, pc}
